; ModuleID = 'source-C-CXX/42/1746.c'
source_filename = "source-C-CXX/42/1746.c"
target datalayout = "e-m:e-p270:32:32-p271:32:32-p272:64:64-i64:64-f80:128-n8:16:32:64-S128"
target triple = "x86_64-pc-linux-gnu"

@.str = private unnamed_addr constant [3 x i8] c"%d\00", align 1
@.str.1 = private unnamed_addr constant [7 x i8] c"%d %d\0A\00", align 1

; Function Attrs: nofree nounwind sspstrong uwtable
define dso_local i32 @main() local_unnamed_addr #0 {
  %1 = alloca [10000 x i32], align 16
  %2 = alloca i32, align 4
  %3 = bitcast [10000 x i32]* %1 to i8*
  call void @llvm.lifetime.start.p0i8(i64 40000, i8* nonnull %3) #3
  %4 = bitcast i32* %2 to i8*
  call void @llvm.lifetime.start.p0i8(i64 4, i8* nonnull %4) #3
  %5 = call i32 (i8*, ...) @__isoc99_scanf(i8* getelementptr inbounds ([3 x i8], [3 x i8]* @.str, i64 0, i64 0), i32* nonnull %2)
  br label %6

6:                                                ; preds = %20, %0
  %7 = phi i32 [ 3, %0 ], [ %22, %20 ]
  %8 = phi i32 [ 0, %0 ], [ %21, %20 ]
  br label %11

9:                                                ; preds = %11
  %10 = icmp eq i32 %15, %7
  br i1 %10, label %16, label %11, !llvm.loop !5

11:                                               ; preds = %6, %9
  %12 = phi i32 [ %15, %9 ], [ 2, %6 ]
  %13 = urem i32 %7, %12
  %14 = icmp eq i32 %13, 0
  %15 = add nuw nsw i32 %12, 1
  br i1 %14, label %20, label %9

16:                                               ; preds = %9
  %17 = sext i32 %8 to i64
  %18 = getelementptr inbounds [10000 x i32], [10000 x i32]* %1, i64 0, i64 %17
  store i32 %7, i32* %18, align 4, !tbaa !7
  %19 = add nsw i32 %8, 1
  br label %20

20:                                               ; preds = %11, %16
  %21 = phi i32 [ %19, %16 ], [ %8, %11 ]
  %22 = add nuw nsw i32 %7, 1
  %23 = icmp eq i32 %22, 10000
  br i1 %23, label %24, label %6, !llvm.loop !11

24:                                               ; preds = %20, %44
  %25 = phi i64 [ %45, %44 ], [ 0, %20 ]
  %26 = load i32, i32* %2, align 4, !tbaa !7
  %27 = getelementptr inbounds [10000 x i32], [10000 x i32]* %1, i64 0, i64 %25
  %28 = load i32, i32* %27, align 4, !tbaa !7
  %29 = sub nsw i32 %26, %28
  %30 = sdiv i32 %26, 2
  %31 = icmp slt i32 %29, %30
  br i1 %31, label %47, label %37

32:                                               ; preds = %37
  %33 = add nuw nsw i64 %38, 1
  %34 = getelementptr inbounds [10000 x i32], [10000 x i32]* %1, i64 0, i64 %33
  %35 = load i32, i32* %34, align 4, !tbaa !7
  %36 = icmp eq i32 %29, %35
  br i1 %36, label %42, label %48

37:                                               ; preds = %24, %63
  %38 = phi i64 [ %64, %63 ], [ 0, %24 ]
  %39 = getelementptr inbounds [10000 x i32], [10000 x i32]* %1, i64 0, i64 %38
  %40 = load i32, i32* %39, align 4, !tbaa !7
  %41 = icmp eq i32 %29, %40
  br i1 %41, label %42, label %32

42:                                               ; preds = %58, %53, %48, %32, %37
  %43 = call i32 (i8*, ...) @printf(i8* nonnull dereferenceable(1) getelementptr inbounds ([7 x i8], [7 x i8]* @.str.1, i64 0, i64 0), i32 %28, i32 %29)
  br label %44

44:                                               ; preds = %63, %42
  %45 = add nuw nsw i64 %25, 1
  %46 = icmp eq i64 %45, 10001
  br i1 %46, label %47, label %24, !llvm.loop !12

47:                                               ; preds = %24, %44
  call void @llvm.lifetime.end.p0i8(i64 4, i8* nonnull %4) #3
  call void @llvm.lifetime.end.p0i8(i64 40000, i8* nonnull %3) #3
  ret i32 0

48:                                               ; preds = %32
  %49 = add nuw nsw i64 %38, 2
  %50 = getelementptr inbounds [10000 x i32], [10000 x i32]* %1, i64 0, i64 %49
  %51 = load i32, i32* %50, align 4, !tbaa !7
  %52 = icmp eq i32 %29, %51
  br i1 %52, label %42, label %53

53:                                               ; preds = %48
  %54 = add nuw nsw i64 %38, 3
  %55 = getelementptr inbounds [10000 x i32], [10000 x i32]* %1, i64 0, i64 %54
  %56 = load i32, i32* %55, align 4, !tbaa !7
  %57 = icmp eq i32 %29, %56
  br i1 %57, label %42, label %58

58:                                               ; preds = %53
  %59 = add nuw nsw i64 %38, 4
  %60 = getelementptr inbounds [10000 x i32], [10000 x i32]* %1, i64 0, i64 %59
  %61 = load i32, i32* %60, align 4, !tbaa !7
  %62 = icmp eq i32 %29, %61
  br i1 %62, label %42, label %63

63:                                               ; preds = %58
  %64 = add nuw nsw i64 %38, 5
  %65 = icmp eq i64 %64, 10000
  br i1 %65, label %44, label %37, !llvm.loop !13
}

; Function Attrs: argmemonly mustprogress nofree nosync nounwind willreturn
declare void @llvm.lifetime.start.p0i8(i64 immarg, i8* nocapture) #1

; Function Attrs: nofree nounwind
declare noundef i32 @__isoc99_scanf(i8* nocapture noundef readonly, ...) local_unnamed_addr #2

; Function Attrs: nofree nounwind
declare noundef i32 @printf(i8* nocapture noundef readonly, ...) local_unnamed_addr #2

; Function Attrs: argmemonly mustprogress nofree nosync nounwind willreturn
declare void @llvm.lifetime.end.p0i8(i64 immarg, i8* nocapture) #1


!llvm.module.flags = !{!0, !1, !2, !3}
!llvm.ident = !{!4}

!0 = !{i32 1, !"wchar_size", i32 4}
!1 = !{i32 7, !"PIC Level", i32 2}
!2 = !{i32 7, !"PIE Level", i32 2}
!3 = !{i32 7, !"uwtable", i32 1}
!4 = !{!"clang version 13.0.0"}
!5 = distinct !{!5, !6}
!6 = !{!"llvm.loop.mustprogress"}
!7 = !{!8, !8, i64 0}
!8 = !{!"int", !9, i64 0}
!9 = !{!"omnipotent char", !10, i64 0}
!10 = !{!"Simple C/C++ TBAA"}
!11 = distinct !{!11, !6}
!12 = distinct !{!12, !6}
!13 = distinct !{!13, !6}
